target datalayout = "e-m:e-p270:32:32-p271:32:32-p272:64:64-i64:64-i128:128-f80:128-n8:16:32:64-S128"
target triple = "x86_64-pc-linux-gnu"

%struct.ossl_param_st = type { ptr, i32, ptr, i64, i64 }

@.str.6 = private unnamed_addr constant [41 x i8] c"../openssl/test/provider_internal_test.c\00", align 1
@.str.9 = private unnamed_addr constant [21 x i8] c"no greeting received\00", align 1
@.str.10 = private unnamed_addr constant [35 x i8] c"ossl_provider_activate(prov, 1, 0)\00", align 1
@.str.11 = private unnamed_addr constant [49 x i8] c"ossl_provider_get_params(prov, greeting_request)\00", align 1
@.str.12 = private unnamed_addr constant [36 x i8] c"greeting = greeting_request[0].data\00", align 1
@.str.13 = private unnamed_addr constant [30 x i8] c"greeting_request[0].data_size\00", align 1
@.str.14 = private unnamed_addr constant [2 x i8] c"0\00", align 1
@.str.15 = private unnamed_addr constant [9 x i8] c"greeting\00", align 1
@.str.16 = private unnamed_addr constant [18 x i8] c"expected_greeting\00", align 1
@.str.17 = private unnamed_addr constant [34 x i8] c"ossl_provider_deactivate(prov, 1)\00", align 1
@.str.18 = private unnamed_addr constant [23 x i8] c"Got this greeting: %s\0A\00", align 1
@greeting_request = internal global [2 x { ptr, i32, [4 x i8], ptr, i64, i64 }] [{ ptr, i32, [4 x i8], ptr, i64, i64 } { ptr @.str.15, i32 4, [4 x i8] zeroinitializer, ptr @buf, i64 256, i64 0 }, { ptr, i32, [4 x i8], ptr, i64, i64 } zeroinitializer], align 16

; Function Attrs: nounwind uwtable
define internal i32 @test_provider(ptr noundef %0, ptr noundef %1) #0 {
  %3 = alloca ptr, align 8
  %4 = alloca ptr, align 8
  %5 = alloca ptr, align 8
  %6 = alloca i32, align 4
  store ptr %0, ptr %3, align 8, !tbaa !9
  store ptr %1, ptr %4, align 8, !tbaa !4
  call void @llvm.lifetime.start.p0(i64 8, ptr %5) #3
  store ptr @.str.9, ptr %5, align 8, !tbaa !4
  call void @llvm.lifetime.start.p0(i64 4, ptr %6) #3
  store i32 0, ptr %6, align 4, !tbaa !11
  %7 = load ptr, ptr %3, align 8, !tbaa !9
  %8 = call i32 @ossl_provider_activate(ptr noundef %7, i32 noundef 1, i32 noundef 0)
  %9 = icmp ne i32 %8, 0
  %10 = zext i1 %9 to i32
  %11 = call i32 @test_true(ptr noundef @.str.6, i32 noundef 29, ptr noundef @.str.10, i32 noundef %10)
  %12 = icmp ne i32 %11, 0
  br i1 %12, label %13, label %40

13:                                               ; preds = %2
  %14 = load ptr, ptr %3, align 8, !tbaa !9
  %15 = call i32 @ossl_provider_get_params(ptr noundef %14, ptr noundef @greeting_request)
  %16 = icmp ne i32 %15, 0
  %17 = zext i1 %16 to i32
  %18 = call i32 @test_true(ptr noundef @.str.6, i32 noundef 30, ptr noundef @.str.11, i32 noundef %17)
  %19 = icmp ne i32 %18, 0
  br i1 %19, label %20, label %40

20:                                               ; preds = %13
  %21 = load ptr, ptr getelementptr inbounds nuw (%struct.ossl_param_st, ptr @greeting_request, i32 0, i32 2), align 16, !tbaa !17
  store ptr %21, ptr %5, align 8, !tbaa !4
  %22 = call i32 @test_ptr(ptr noundef @.str.6, i32 noundef 31, ptr noundef @.str.12, ptr noundef %21)
  %23 = icmp ne i32 %22, 0
  br i1 %23, label %24, label %40

24:                                               ; preds = %20
  %25 = load i64, ptr getelementptr inbounds nuw (%struct.ossl_param_st, ptr @greeting_request, i32 0, i32 3), align 8, !tbaa !20
  %26 = call i32 @test_size_t_gt(ptr noundef @.str.6, i32 noundef 32, ptr noundef @.str.13, ptr noundef @.str.14, i64 noundef %25, i64 noundef 0)
  %27 = icmp ne i32 %26, 0
  br i1 %27, label %28, label %40

28:                                               ; preds = %24
  %29 = load ptr, ptr %5, align 8, !tbaa !4
  %30 = load ptr, ptr %4, align 8, !tbaa !4
  %31 = call i32 @test_str_eq(ptr noundef @.str.6, i32 noundef 33, ptr noundef @.str.15, ptr noundef @.str.16, ptr noundef %29, ptr noundef %30)
  %32 = icmp ne i32 %31, 0
  br i1 %32, label %33, label %40

33:                                               ; preds = %28
  %34 = load ptr, ptr %3, align 8, !tbaa !9
  %35 = call i32 @ossl_provider_deactivate(ptr noundef %34, i32 noundef 1)
  %36 = icmp ne i32 %35, 0
  %37 = zext i1 %36 to i32
  %38 = call i32 @test_true(ptr noundef @.str.6, i32 noundef 34, ptr noundef @.str.17, i32 noundef %37)
  %39 = icmp ne i32 %38, 0
  br label %40

40:                                               ; preds = %33, %28, %24, %20, %13, %2
  %41 = phi i1 [ false, %28 ], [ false, %24 ], [ false, %20 ], [ false, %13 ], [ false, %2 ], [ %39, %33 ]
  %42 = zext i1 %41 to i32
  store i32 %42, ptr %6, align 4, !tbaa !11
  %43 = load ptr, ptr %5, align 8, !tbaa !4
  call void (ptr, i32, ptr, ...) @test_info(ptr noundef @.str.6, i32 noundef 36, ptr noundef @.str.18, ptr noundef %43)
  %44 = load ptr, ptr %3, align 8, !tbaa !9
  call void @ossl_provider_free(ptr noundef %44)
  %45 = load i32, ptr %6, align 4, !tbaa !11
  call void @llvm.lifetime.end.p0(i64 4, ptr %6) #3
  call void @llvm.lifetime.end.p0(i64 8, ptr %5) #3
  ret i32 %45
}