; Function Attrs: nounwind uwtable
define internal fastcc range(i32 0, 2) i32 @test_provider(ptr noundef %0, ptr noundef %1) unnamed_addr #0 {
  %3 = tail call i32 @ossl_provider_activate(ptr noundef %0, i32 noundef 1, i32 noundef 0) #2
  %4 = icmp ne i32 %3, 0
  %5 = zext i1 %4 to i32
  %6 = tail call i32 @test_true(ptr noundef nonnull @.str.6, i32 noundef 29, ptr noundef nonnull @.str.10, i32 noundef %5) #2
  %.not = icmp eq i32 %6, 0
  br i1 %.not, label %27, label %7

7:                                                ; preds = %2
  %8 = tail call i32 @ossl_provider_get_params(ptr noundef %0, ptr noundef nonnull @greeting_request) #2
  %9 = icmp ne i32 %8, 0
  %10 = zext i1 %9 to i32
  %11 = tail call i32 @test_true(ptr noundef nonnull @.str.6, i32 noundef 30, ptr noundef nonnull @.str.11, i32 noundef %10) #2
  %.not7 = icmp eq i32 %11, 0
  br i1 %.not7, label %27, label %12

12:                                               ; preds = %7
  %13 = load ptr, ptr getelementptr inbounds nuw (i8, ptr @greeting_request, i64 16), align 16, !tbaa !4
  %14 = tail call i32 @test_ptr(ptr noundef nonnull @.str.6, i32 noundef 31, ptr noundef nonnull @.str.12, ptr noundef %13) #2
  %.not8 = icmp eq i32 %14, 0
  br i1 %.not8, label %27, label %15

15:                                               ; preds = %12
  %16 = load i64, ptr getelementptr inbounds nuw (i8, ptr @greeting_request, i64 24), align 8, !tbaa !12
  %17 = tail call i32 @test_size_t_gt(ptr noundef nonnull @.str.6, i32 noundef 32, ptr noundef nonnull @.str.13, ptr noundef nonnull @.str.14, i64 noundef %16, i64 noundef 0) #2
  %.not9 = icmp eq i32 %17, 0
  br i1 %.not9, label %27, label %18

18:                                               ; preds = %15
  %19 = tail call i32 @test_str_eq(ptr noundef nonnull @.str.6, i32 noundef 33, ptr noundef nonnull @.str.15, ptr noundef nonnull @.str.16, ptr noundef %13, ptr noundef %1) #2
  %.not10 = icmp eq i32 %19, 0
  br i1 %.not10, label %27, label %20

20:                                               ; preds = %18
  %21 = tail call i32 @ossl_provider_deactivate(ptr noundef %0, i32 noundef 1) #2
  %22 = icmp ne i32 %21, 0
  %23 = zext i1 %22 to i32
  %24 = tail call i32 @test_true(ptr noundef nonnull @.str.6, i32 noundef 34, ptr noundef nonnull @.str.17, i32 noundef %23) #2
  %25 = icmp ne i32 %24, 0
  %26 = zext i1 %25 to i32
  br label %27

27:                                               ; preds = %20, %18, %15, %12, %7, %2
  %.0 = phi ptr [ %13, %20 ], [ %13, %18 ], [ %13, %15 ], [ %13, %12 ], [ @.str.9, %7 ], [ @.str.9, %2 ]
  %28 = phi i32 [ %26, %20 ], [ 0, %18 ], [ 0, %15 ], [ 0, %12 ], [ 0, %7 ], [ 0, %2 ]
  tail call void (ptr, i32, ptr, ...) @test_info(ptr noundef nonnull @.str.6, i32 noundef 36, ptr noundef nonnull @.str.18, ptr noundef %.0) #2
  tail call void @ossl_provider_free(ptr noundef %0) #2
  ret i32 %28
}